target datalayout = "e-m:e-p270:32:32-p271:32:32-p272:64:64-i64:64-i128:128-f80:128-n8:16:32:64-S128"
target triple = "x86_64-pc-linux-gnu"

%struct.AVCodecContext = type { ptr, i32, i32, ptr, i32, i32, ptr, ptr, ptr, i64, i32, i32, ptr, i32, %struct.AVRational, %struct.AVRational, %struct.AVRational, i32, i32, i32, i32, i32, %struct.AVRational, i32, i32, i32, i32, i32, i32, i32, i32, i32, i32, i32, ptr, ptr, i32, float, float, float, float, float, float, float, float, float, i32, i32, i32, i32, i32, i32, i32, i32, i32, i32, i32, i32, ptr, ptr, ptr, i32, i32, i32, i32, i32, i32, i32, i32, i32, i32, %struct.AVChannelLayout, i32, i32, i32, i32, i32, i32, i32, i32, ptr, i32, i32, i32, float, float, i32, i32, i32, i32, i32, ptr, i64, i64, float, float, i32, i32, ptr, ptr, i32, i32, i32, i32, i32, ptr, ptr, ptr, ptr, i32, i32, [8 x i64], i32, i32, i32, i32, i32, i32, i32, ptr, ptr, i32, i32, i32, i32, i32, i32, i32, i32, i32, i32, ptr, ptr, i32, i32, ptr, ptr, ptr, ptr, i32, i32, i64, i32, i32, i64, ptr, i64, ptr, i32, ptr, i32 }
%struct.AVRational = type { i32, i32 }
%struct.AVChannelLayout = type { i32, i32, %union.anon.0, ptr }
%union.anon.0 = type { i64 }
%struct.AVPacket = type { ptr, i64, i64, ptr, i32, i32, i32, ptr, i32, i64, i64, ptr, ptr, %struct.AVRational }
%struct.AVFrame = type { [8 x ptr], [8 x i32], ptr, i32, i32, i32, i32, i32, %struct.AVRational, i64, i64, %struct.AVRational, i32, ptr, i32, i32, [8 x ptr], ptr, i32, ptr, i32, i32, i32, i32, i32, i32, i32, i64, ptr, i32, ptr, ptr, i64, i64, i64, i64, ptr, %struct.AVChannelLayout, i64 }

; Function Attrs: nounwind uwtable
define internal i32 @avui_encode_frame(ptr noundef %0, ptr noundef %1, ptr noundef %2, ptr noundef %3) #1 {
  %5 = alloca i32, align 4
  %6 = alloca ptr, align 8
  %7 = alloca ptr, align 8
  %8 = alloca ptr, align 8
  %9 = alloca ptr, align 8
  %10 = alloca ptr, align 8
  %11 = alloca i32, align 4
  %12 = alloca i32, align 4
  %13 = alloca i32, align 4
  %14 = alloca i32, align 4
  %15 = alloca i32, align 4
  %16 = alloca i32, align 4
  %17 = alloca i32, align 4
  %18 = alloca ptr, align 8
  store ptr %0, ptr %6, align 8, !tbaa !4
  store ptr %1, ptr %7, align 8, !tbaa !34
  store ptr %2, ptr %8, align 8, !tbaa !36
  store ptr %3, ptr %9, align 8, !tbaa !38
  call void @llvm.lifetime.start.p0(i64 8, ptr %10) #8
  call void @llvm.lifetime.start.p0(i64 4, ptr %11) #8
  call void @llvm.lifetime.start.p0(i64 4, ptr %12) #8
  call void @llvm.lifetime.start.p0(i64 4, ptr %13) #8
  call void @llvm.lifetime.start.p0(i64 4, ptr %14) #8
  call void @llvm.lifetime.start.p0(i64 4, ptr %15) #8
  call void @llvm.lifetime.start.p0(i64 4, ptr %16) #8
  %19 = load ptr, ptr %6, align 8, !tbaa !4
  %20 = getelementptr inbounds nuw %struct.AVCodecContext, ptr %19, i32 0, i32 30
  %21 = load i32, ptr %20, align 4, !tbaa !32
  %22 = icmp ugt i32 %21, 1
  %23 = zext i1 %22 to i32
  store i32 %23, ptr %16, align 4, !tbaa !39
  %24 = load ptr, ptr %6, align 8, !tbaa !4
  %25 = getelementptr inbounds nuw %struct.AVCodecContext, ptr %24, i32 0, i32 19
  %26 = load i32, ptr %25, align 4, !tbaa !29
  %27 = icmp eq i32 %26, 486
  br i1 %27, label %28, label %29

28:                                               ; preds = %4
  store i32 10, ptr %13, align 4, !tbaa !39
  br label %30

29:                                               ; preds = %4
  store i32 16, ptr %13, align 4, !tbaa !39
  br label %30

30:                                               ; preds = %29, %28
  %31 = load ptr, ptr %6, align 8, !tbaa !4
  %32 = getelementptr inbounds nuw %struct.AVCodecContext, ptr %31, i32 0, i32 18
  %33 = load i32, ptr %32, align 8, !tbaa !9
  %34 = mul nsw i32 2, %33
  %35 = load ptr, ptr %6, align 8, !tbaa !4
  %36 = getelementptr inbounds nuw %struct.AVCodecContext, ptr %35, i32 0, i32 19
  %37 = load i32, ptr %36, align 4, !tbaa !29
  %38 = load i32, ptr %13, align 4, !tbaa !39
  %39 = add nsw i32 %37, %38
  %40 = mul nsw i32 %34, %39
  %41 = load i32, ptr %16, align 4, !tbaa !39
  %42 = mul nsw i32 8, %41
  %43 = add nsw i32 %40, %42
  store i32 %43, ptr %15, align 4, !tbaa !39
  %44 = load ptr, ptr %6, align 8, !tbaa !4
  %45 = load ptr, ptr %7, align 8, !tbaa !34
  %46 = load i32, ptr %15, align 4, !tbaa !39
  %47 = sext i32 %46 to i64
  %48 = call i32 @ff_get_encode_buffer(ptr noundef %44, ptr noundef %45, i64 noundef %47, i32 noundef 0)
  store i32 %48, ptr %14, align 4, !tbaa !39
  %49 = icmp slt i32 %48, 0
  br i1 %49, label %50, label %52

50:                                               ; preds = %30
  %51 = load i32, ptr %14, align 4, !tbaa !39
  store i32 %51, ptr %5, align 4
  store i32 1, ptr %17, align 4
  br label %178

52:                                               ; preds = %30
  %53 = load ptr, ptr %7, align 8, !tbaa !34
  %54 = getelementptr inbounds nuw %struct.AVPacket, ptr %53, i32 0, i32 3
  %55 = load ptr, ptr %54, align 8, !tbaa !40
  store ptr %55, ptr %10, align 8, !tbaa !42
  %56 = load i32, ptr %16, align 4, !tbaa !39
  %57 = icmp ne i32 %56, 0
  br i1 %57, label %74, label %58

58:                                               ; preds = %52
  %59 = load ptr, ptr %10, align 8, !tbaa !42
  %60 = load ptr, ptr %6, align 8, !tbaa !4
  %61 = getelementptr inbounds nuw %struct.AVCodecContext, ptr %60, i32 0, i32 18
  %62 = load i32, ptr %61, align 8, !tbaa !9
  %63 = load i32, ptr %13, align 4, !tbaa !39
  %64 = mul nsw i32 %62, %63
  %65 = sext i32 %64 to i64
  call void @llvm.memset.p0.i64(ptr align 1 %59, i8 0, i64 %65, i1 false)
  %66 = load ptr, ptr %6, align 8, !tbaa !4
  %67 = getelementptr inbounds nuw %struct.AVCodecContext, ptr %66, i32 0, i32 18
  %68 = load i32, ptr %67, align 8, !tbaa !9
  %69 = load i32, ptr %13, align 4, !tbaa !39
  %70 = mul nsw i32 %68, %69
  %71 = load ptr, ptr %10, align 8, !tbaa !42
  %72 = sext i32 %70 to i64
  %73 = getelementptr inbounds i8, ptr %71, i64 %72
  store ptr %73, ptr %10, align 8, !tbaa !42
  br label %74

74:                                               ; preds = %58, %52
  store i32 0, ptr %11, align 4, !tbaa !39
  br label %75

75:                                               ; preds = %173, %74
  %76 = load i32, ptr %11, align 4, !tbaa !39
  %77 = load i32, ptr %16, align 4, !tbaa !39
  %78 = icmp sle i32 %76, %77
  br i1 %78, label %79, label %176

79:                                               ; preds = %75
  call void @llvm.lifetime.start.p0(i64 8, ptr %18) #8
  %80 = load i32, ptr %16, align 4, !tbaa !39
  %81 = icmp ne i32 %80, 0
  br i1 %81, label %82, label %101

82:                                               ; preds = %79
  %83 = load ptr, ptr %6, align 8, !tbaa !4
  %84 = getelementptr inbounds nuw %struct.AVCodecContext, ptr %83, i32 0, i32 19
  %85 = load i32, ptr %84, align 4, !tbaa !29
  %86 = icmp eq i32 %85, 486
  br i1 %86, label %87, label %101

87:                                               ; preds = %82
  %88 = load ptr, ptr %8, align 8, !tbaa !36
  %89 = getelementptr inbounds nuw %struct.AVFrame, ptr %88, i32 0, i32 0
  %90 = getelementptr inbounds [8 x ptr], ptr %89, i64 0, i64 0
  %91 = load ptr, ptr %90, align 8, !tbaa !42
  %92 = load i32, ptr %11, align 4, !tbaa !39
  %93 = sub nsw i32 1, %92
  %94 = load ptr, ptr %8, align 8, !tbaa !36
  %95 = getelementptr inbounds nuw %struct.AVFrame, ptr %94, i32 0, i32 1
  %96 = getelementptr inbounds [8 x i32], ptr %95, i64 0, i64 0
  %97 = load i32, ptr %96, align 8, !tbaa !39
  %98 = mul nsw i32 %93, %97
  %99 = sext i32 %98 to i64
  %100 = getelementptr inbounds i8, ptr %91, i64 %99
  store ptr %100, ptr %18, align 8, !tbaa !42
  br label %114

101:                                              ; preds = %82, %79
  %102 = load ptr, ptr %8, align 8, !tbaa !36
  %103 = getelementptr inbounds nuw %struct.AVFrame, ptr %102, i32 0, i32 0
  %104 = getelementptr inbounds [8 x ptr], ptr %103, i64 0, i64 0
  %105 = load ptr, ptr %104, align 8, !tbaa !42
  %106 = load i32, ptr %11, align 4, !tbaa !39
  %107 = load ptr, ptr %8, align 8, !tbaa !36
  %108 = getelementptr inbounds nuw %struct.AVFrame, ptr %107, i32 0, i32 1
  %109 = getelementptr inbounds [8 x i32], ptr %108, i64 0, i64 0
  %110 = load i32, ptr %109, align 8, !tbaa !39
  %111 = mul nsw i32 %106, %110
  %112 = sext i32 %111 to i64
  %113 = getelementptr inbounds i8, ptr %105, i64 %112
  store ptr %113, ptr %18, align 8, !tbaa !42
  br label %114

114:                                              ; preds = %101, %87
  %115 = load ptr, ptr %10, align 8, !tbaa !42
  %116 = load ptr, ptr %6, align 8, !tbaa !4
  %117 = getelementptr inbounds nuw %struct.AVCodecContext, ptr %116, i32 0, i32 18
  %118 = load i32, ptr %117, align 8, !tbaa !9
  %119 = load i32, ptr %13, align 4, !tbaa !39
  %120 = mul nsw i32 %118, %119
  %121 = load i32, ptr %11, align 4, !tbaa !39
  %122 = mul nsw i32 4, %121
  %123 = add nsw i32 %120, %122
  %124 = sext i32 %123 to i64
  call void @llvm.memset.p0.i64(ptr align 1 %115, i8 0, i64 %124, i1 false)
  %125 = load ptr, ptr %6, align 8, !tbaa !4
  %126 = getelementptr inbounds nuw %struct.AVCodecContext, ptr %125, i32 0, i32 18
  %127 = load i32, ptr %126, align 8, !tbaa !9
  %128 = load i32, ptr %13, align 4, !tbaa !39
  %129 = mul nsw i32 %127, %128
  %130 = load i32, ptr %11, align 4, !tbaa !39
  %131 = mul nsw i32 4, %130
  %132 = add nsw i32 %129, %131
  %133 = load ptr, ptr %10, align 8, !tbaa !42
  %134 = sext i32 %132 to i64
  %135 = getelementptr inbounds i8, ptr %133, i64 %134
  store ptr %135, ptr %10, align 8, !tbaa !42
  store i32 0, ptr %12, align 4, !tbaa !39
  br label %136

136:                                              ; preds = %167, %114
  %137 = load i32, ptr %12, align 4, !tbaa !39
  %138 = load ptr, ptr %6, align 8, !tbaa !4
  %139 = getelementptr inbounds nuw %struct.AVCodecContext, ptr %138, i32 0, i32 19
  %140 = load i32, ptr %139, align 4, !tbaa !29
  %141 = icmp slt i32 %137, %140
  br i1 %141, label %142, label %172

142:                                              ; preds = %136
  %143 = load ptr, ptr %10, align 8, !tbaa !42
  %144 = load ptr, ptr %18, align 8, !tbaa !42
  %145 = load ptr, ptr %6, align 8, !tbaa !4
  %146 = getelementptr inbounds nuw %struct.AVCodecContext, ptr %145, i32 0, i32 18
  %147 = load i32, ptr %146, align 8, !tbaa !9
  %148 = mul nsw i32 %147, 2
  %149 = sext i32 %148 to i64
  call void @llvm.memcpy.p0.p0.i64(ptr align 1 %143, ptr align 1 %144, i64 %149, i1 false)
  %150 = load i32, ptr %16, align 4, !tbaa !39
  %151 = add nsw i32 %150, 1
  %152 = load ptr, ptr %8, align 8, !tbaa !36
  %153 = getelementptr inbounds nuw %struct.AVFrame, ptr %152, i32 0, i32 1
  %154 = getelementptr inbounds [8 x i32], ptr %153, i64 0, i64 0
  %155 = load i32, ptr %154, align 8, !tbaa !39
  %156 = mul nsw i32 %151, %155
  %157 = load ptr, ptr %18, align 8, !tbaa !42
  %158 = sext i32 %156 to i64
  %159 = getelementptr inbounds i8, ptr %157, i64 %158
  store ptr %159, ptr %18, align 8, !tbaa !42
  %160 = load ptr, ptr %6, align 8, !tbaa !4
  %161 = getelementptr inbounds nuw %struct.AVCodecContext, ptr %160, i32 0, i32 18
  %162 = load i32, ptr %161, align 8, !tbaa !9
  %163 = mul nsw i32 %162, 2
  %164 = load ptr, ptr %10, align 8, !tbaa !42
  %165 = sext i32 %163 to i64
  %166 = getelementptr inbounds i8, ptr %164, i64 %165
  store ptr %166, ptr %10, align 8, !tbaa !42
  br label %167

167:                                              ; preds = %142
  %168 = load i32, ptr %16, align 4, !tbaa !39
  %169 = add nsw i32 %168, 1
  %170 = load i32, ptr %12, align 4, !tbaa !39
  %171 = add nsw i32 %170, %169
  store i32 %171, ptr %12, align 4, !tbaa !39
  br label %136, !llvm.loop !43

172:                                              ; preds = %136
  call void @llvm.lifetime.end.p0(i64 8, ptr %18) #8
  br label %173

173:                                              ; preds = %172
  %174 = load i32, ptr %11, align 4, !tbaa !39
  %175 = add nsw i32 %174, 1
  store i32 %175, ptr %11, align 4, !tbaa !39
  br label %75, !llvm.loop !45

176:                                              ; preds = %75
  %177 = load ptr, ptr %9, align 8, !tbaa !38
  store i32 1, ptr %177, align 4, !tbaa !39
  store i32 0, ptr %5, align 4
  store i32 1, ptr %17, align 4
  br label %178

178:                                              ; preds = %176, %50
  call void @llvm.lifetime.end.p0(i64 4, ptr %16) #8
  call void @llvm.lifetime.end.p0(i64 4, ptr %15) #8
  call void @llvm.lifetime.end.p0(i64 4, ptr %14) #8
  call void @llvm.lifetime.end.p0(i64 4, ptr %13) #8
  call void @llvm.lifetime.end.p0(i64 4, ptr %12) #8
  call void @llvm.lifetime.end.p0(i64 4, ptr %11) #8
  call void @llvm.lifetime.end.p0(i64 8, ptr %10) #8
  %179 = load i32, ptr %5, align 4
  ret i32 %179
}