; Function Attrs: nounwind uwtable
define internal range(i32 -2147483648, 1) i32 @avui_encode_frame(ptr noundef %0, ptr noundef %1, ptr noundef readonly captures(none) %2, ptr noundef writeonly captures(none) %3) #1 {
  %5 = getelementptr inbounds nuw i8, ptr %0, i64 164
  %6 = load i32, ptr %5, align 4, !tbaa !30
  %7 = icmp ugt i32 %6, 1
  %8 = zext i1 %7 to i32
  %9 = getelementptr inbounds nuw i8, ptr %0, i64 116
  %10 = load i32, ptr %9, align 4, !tbaa !27
  %11 = icmp eq i32 %10, 486
  %. = select i1 %11, i32 10, i32 16
  %12 = getelementptr inbounds nuw i8, ptr %0, i64 112
  %13 = load i32, ptr %12, align 8, !tbaa !4
  %14 = shl nsw i32 %13, 1
  %15 = add nsw i32 %., %10
  %16 = mul nsw i32 %14, %15
  %17 = select i1 %7, i32 8, i32 0
  %18 = add nsw i32 %16, %17
  %19 = sext i32 %18 to i64
  %20 = tail call i32 @ff_get_encode_buffer(ptr noundef %0, ptr noundef %1, i64 noundef %19, i32 noundef 0) #6
  %21 = icmp slt i32 %20, 0
  br i1 %21, label %93, label %22

22:                                               ; preds = %4
  %23 = getelementptr inbounds nuw i8, ptr %1, i64 24
  %24 = load ptr, ptr %23, align 8, !tbaa !32
  br i1 %7, label %.split.us.preheader, label %.split.preheader

.split.preheader:                                 ; preds = %22
  %25 = load i32, ptr %12, align 8, !tbaa !4
  %26 = mul nsw i32 %25, %.
  %27 = sext i32 %26 to i64
  tail call void @llvm.memset.p0.i64(ptr align 1 %24, i8 0, i64 %27, i1 false)
  %28 = getelementptr inbounds nuw i8, ptr %2, i64 64
  %29 = load i32, ptr %12, align 8, !tbaa !4
  %30 = mul nsw i32 %29, %.
  %31 = sext i32 %30 to i64
  %32 = getelementptr inbounds i8, ptr %24, i64 %31
  %33 = load ptr, ptr %2, align 8, !tbaa !34
  %34 = mul nsw i32 %29, %.
  %35 = sext i32 %34 to i64
  tail call void @llvm.memset.p0.i64(ptr align 1 %32, i8 0, i64 %35, i1 false)
  %36 = load i32, ptr %9, align 4, !tbaa !27
  %37 = icmp sgt i32 %36, 0
  br i1 %37, label %.lr.ph.preheader, label %.split64.us

.split.us.preheader:                              ; preds = %22
  %38 = getelementptr inbounds nuw i8, ptr %2, i64 64
  %.pre68 = load i32, ptr %9, align 4, !tbaa !27
  br label %.split.us

.split.us:                                        ; preds = %.split.us.preheader, %._crit_edge.us
  %39 = phi i32 [ %59, %._crit_edge.us ], [ %.pre68, %.split.us.preheader ]
  %.15262.us = phi ptr [ %.2.lcssa.us, %._crit_edge.us ], [ %24, %.split.us.preheader ]
  %.05361.us = phi i32 [ %60, %._crit_edge.us ], [ 0, %.split.us.preheader ]
  %40 = load ptr, ptr %2, align 8, !tbaa !34
  %41 = load i32, ptr %38, align 8, !tbaa !35
  %42 = load i32, ptr %12, align 8, !tbaa !4
  %43 = mul nsw i32 %42, %.
  %44 = shl nuw nsw i32 %.05361.us, 2
  %45 = add nsw i32 %43, %44
  %46 = sext i32 %45 to i64
  tail call void @llvm.memset.p0.i64(ptr align 1 %.15262.us, i8 0, i64 %46, i1 false)
  %47 = load i32, ptr %12, align 8, !tbaa !4
  %48 = mul nsw i32 %47, %.
  %49 = add nsw i32 %48, %44
  %50 = sext i32 %49 to i64
  %51 = getelementptr inbounds i8, ptr %.15262.us, i64 %50
  %52 = load i32, ptr %9, align 4, !tbaa !27
  %53 = icmp sgt i32 %52, 0
  br i1 %53, label %.lr.ph.us.preheader, label %._crit_edge.us

.lr.ph.us.preheader:                              ; preds = %.split.us
  %54 = icmp eq i32 %39, 486
  %55 = sub nuw nsw i32 1, %.05361.us
  %.sink76 = select i1 %54, i32 %55, i32 %.05361.us
  %56 = mul nuw nsw i32 %41, %.sink76
  %57 = sext i32 %56 to i64
  %58 = getelementptr inbounds i8, ptr %40, i64 %57
  br label %.lr.ph.us

._crit_edge.us:                                   ; preds = %.lr.ph.us, %.split.us
  %59 = phi i32 [ %52, %.split.us ], [ %73, %.lr.ph.us ]
  %.2.lcssa.us = phi ptr [ %51, %.split.us ], [ %71, %.lr.ph.us ]
  %60 = add nuw nsw i32 %.05361.us, 1
  %exitcond67.not = icmp eq i32 %60, 2
  br i1 %exitcond67.not, label %.split64.us, label %.split.us, !llvm.loop !36

.lr.ph.us:                                        ; preds = %.lr.ph.us.preheader, %.lr.ph.us
  %61 = phi i32 [ %68, %.lr.ph.us ], [ %47, %.lr.ph.us.preheader ]
  %.160.us = phi ptr [ %67, %.lr.ph.us ], [ %58, %.lr.ph.us.preheader ]
  %.259.us = phi ptr [ %71, %.lr.ph.us ], [ %51, %.lr.ph.us.preheader ]
  %.05558.us = phi i32 [ %72, %.lr.ph.us ], [ 0, %.lr.ph.us.preheader ]
  %62 = shl nsw i32 %61, 1
  %63 = sext i32 %62 to i64
  tail call void @llvm.memcpy.p0.p0.i64(ptr align 1 %.259.us, ptr align 1 %.160.us, i64 %63, i1 false)
  %64 = load i32, ptr %38, align 8, !tbaa !35
  %65 = shl i32 %64, %8
  %66 = sext i32 %65 to i64
  %67 = getelementptr inbounds i8, ptr %.160.us, i64 %66
  %68 = load i32, ptr %12, align 8, !tbaa !4
  %69 = shl nsw i32 %68, 1
  %70 = sext i32 %69 to i64
  %71 = getelementptr inbounds i8, ptr %.259.us, i64 %70
  %72 = add nuw nsw i32 %.05558.us, 2
  %73 = load i32, ptr %9, align 4, !tbaa !27
  %74 = icmp slt i32 %72, %73
  br i1 %74, label %.lr.ph.us, label %._crit_edge.us, !llvm.loop !38

.lr.ph.preheader:                                 ; preds = %.split.preheader
  %75 = load i32, ptr %12, align 8, !tbaa !4
  %76 = mul nsw i32 %75, %.
  %77 = sext i32 %76 to i64
  %78 = getelementptr inbounds i8, ptr %32, i64 %77
  br label %.lr.ph

.lr.ph:                                           ; preds = %.lr.ph.preheader, %.lr.ph
  %79 = phi i32 [ %86, %.lr.ph ], [ %75, %.lr.ph.preheader ]
  %.160 = phi ptr [ %85, %.lr.ph ], [ %33, %.lr.ph.preheader ]
  %.259 = phi ptr [ %89, %.lr.ph ], [ %78, %.lr.ph.preheader ]
  %.05558 = phi i32 [ %90, %.lr.ph ], [ 0, %.lr.ph.preheader ]
  %80 = shl nsw i32 %79, 1
  %81 = sext i32 %80 to i64
  tail call void @llvm.memcpy.p0.p0.i64(ptr align 1 %.259, ptr align 1 %.160, i64 %81, i1 false)
  %82 = load i32, ptr %28, align 8, !tbaa !35
  %83 = shl i32 %82, %8
  %84 = sext i32 %83 to i64
  %85 = getelementptr inbounds i8, ptr %.160, i64 %84
  %86 = load i32, ptr %12, align 8, !tbaa !4
  %87 = shl nsw i32 %86, 1
  %88 = sext i32 %87 to i64
  %89 = getelementptr inbounds i8, ptr %.259, i64 %88
  %90 = add nuw nsw i32 %.05558, 1
  %91 = load i32, ptr %9, align 4, !tbaa !27
  %92 = icmp slt i32 %90, %91
  br i1 %92, label %.lr.ph, label %.split64.us, !llvm.loop !38

.split64.us:                                      ; preds = %.lr.ph, %._crit_edge.us, %.split.preheader
  store i32 1, ptr %3, align 4, !tbaa !35
  br label %93

93:                                               ; preds = %4, %.split64.us
  %.050 = phi i32 [ 0, %.split64.us ], [ %20, %4 ]
  ret i32 %.050
}